; Function Attrs: mustprogress nounwind uwtable
define dso_local noundef zeroext i1 @_ZNK4llvm16X86FrameLowering27canSimplifyCallFramePseudosERKNS_15MachineFunctionE(ptr noundef nonnull align 8 dereferenceable(60) %0, ptr noundef nonnull align 8 dereferenceable(1041) %1) unnamed_addr #2 align 2 {
  %3 = load ptr, ptr %0, align 8
  %4 = getelementptr inbounds i8, ptr %3, i64 208
  %5 = load ptr, ptr %4, align 8
  %6 = tail call noundef zeroext i1 %5(ptr noundef nonnull align 8 dereferenceable(60) %0, ptr noundef nonnull align 8 dereferenceable(1041) %1) #23
  br i1 %6, label %_ZNK4llvm18TargetRegisterInfo19hasStackRealignmentERKNS_15MachineFunctionE.exit.thread, label %7

7:                                                ; preds = %2
  %8 = getelementptr inbounds nuw i8, ptr %1, i64 40
  %9 = load ptr, ptr %8, align 8
  %10 = getelementptr inbounds nuw i8, ptr %9, i64 107
  %11 = load i8, ptr %10, align 1
  %12 = trunc i8 %11 to i1
  br i1 %12, label %_ZNK4llvm18TargetRegisterInfo19hasStackRealignmentERKNS_15MachineFunctionE.exit.thread, label %13

13:                                               ; preds = %7
  %14 = load ptr, ptr %0, align 8
  %15 = getelementptr inbounds i8, ptr %14, i64 200
  %16 = load ptr, ptr %15, align 8
  %17 = tail call noundef zeroext i1 %16(ptr noundef nonnull align 8 dereferenceable(60) %0, ptr noundef nonnull align 8 dereferenceable(1041) %1) #23
  br i1 %17, label %18, label %29

18:                                               ; preds = %13
  %19 = getelementptr inbounds nuw i8, ptr %0, i64 40
  %20 = load ptr, ptr %19, align 8
  %21 = load ptr, ptr %20, align 8
  %22 = getelementptr inbounds i8, ptr %21, i64 480
  %23 = load ptr, ptr %22, align 8
  %24 = tail call noundef zeroext i1 %23(ptr noundef nonnull align 8 dereferenceable(308) %20, ptr noundef nonnull align 8 dereferenceable(1041) %1) #23
  br i1 %24, label %_ZNK4llvm18TargetRegisterInfo19hasStackRealignmentERKNS_15MachineFunctionE.exit, label %_ZNK4llvm18TargetRegisterInfo19hasStackRealignmentERKNS_15MachineFunctionE.exit.thread

_ZNK4llvm18TargetRegisterInfo19hasStackRealignmentERKNS_15MachineFunctionE.exit: ; preds = %18
  %25 = load ptr, ptr %20, align 8
  %26 = getelementptr inbounds i8, ptr %25, i64 472
  %27 = load ptr, ptr %26, align 8
  %28 = tail call noundef zeroext i1 %27(ptr noundef nonnull align 8 dereferenceable(308) %20, ptr noundef nonnull align 8 dereferenceable(1041) %1) #23
  br i1 %28, label %29, label %_ZNK4llvm18TargetRegisterInfo19hasStackRealignmentERKNS_15MachineFunctionE.exit.thread

29:                                               ; preds = %_ZNK4llvm18TargetRegisterInfo19hasStackRealignmentERKNS_15MachineFunctionE.exit, %13
  %30 = getelementptr inbounds nuw i8, ptr %0, i64 40
  %31 = load ptr, ptr %30, align 8
  %32 = tail call noundef zeroext i1 @_ZNK4llvm15X86RegisterInfo14hasBasePointerERKNS_15MachineFunctionE(ptr noundef nonnull align 8 dereferenceable(328) %31, ptr noundef nonnull align 8 dereferenceable(1041) %1) #23
  br label %_ZNK4llvm18TargetRegisterInfo19hasStackRealignmentERKNS_15MachineFunctionE.exit.thread

_ZNK4llvm18TargetRegisterInfo19hasStackRealignmentERKNS_15MachineFunctionE.exit.thread: ; preds = %18, %29, %_ZNK4llvm18TargetRegisterInfo19hasStackRealignmentERKNS_15MachineFunctionE.exit, %7, %2
  %33 = phi i1 [ true, %_ZNK4llvm18TargetRegisterInfo19hasStackRealignmentERKNS_15MachineFunctionE.exit ], [ true, %7 ], [ true, %2 ], [ %32, %29 ], [ true, %18 ]
  ret i1 %33
}